target datalayout = "e-m:e-p270:32:32-p271:32:32-p272:64:64-i64:64-i128:128-f80:128-n8:16:32:64-S128"
target triple = "x86_64-pc-linux-gnu"

%"class.std::__cxx11::basic_string" = type { %"struct.std::__cxx11::basic_string<char>::_Alloc_hider", i64, %union.anon }
%"struct.std::__cxx11::basic_string<char>::_Alloc_hider" = type { ptr }
%union.anon = type { i64, [8 x i8] }
%class.V3Number = type { %class.V3NumberData, ptr, ptr }
%class.V3NumberData = type <{ %union.anon.0, i32, i8, i8, [2 x i8] }>
%union.anon.0 = type { %"class.std::__cxx11::basic_string" }
%"struct.V3NumberData::ValueAndX" = type { i32, i32 }
%class.V3ErrorCode = type { i8 }
%"struct.std::_Vector_base" = type { %"struct.std::_Vector_base<V3NumberData::ValueAndX, std::allocator<V3NumberData::ValueAndX>>::_Vector_impl" }
%"struct.std::_Vector_base<V3NumberData::ValueAndX, std::allocator<V3NumberData::ValueAndX>>::_Vector_impl" = type { %"struct.std::_Vector_base<V3NumberData::ValueAndX, std::allocator<V3NumberData::ValueAndX>>::_Vector_impl_data" }
%"struct.std::_Vector_base<V3NumberData::ValueAndX, std::allocator<V3NumberData::ValueAndX>>::_Vector_impl_data" = type { ptr, ptr, ptr }
%"struct.std::array" = type { [4 x %"struct.V3NumberData::ValueAndX"] }

@.str.95 = private unnamed_addr constant [112 x i8] c"generated/home/dtcxzyw/WorkSpace/Projects/compilers/llvm-opt-benchmark/bench/verilator/verilator/src/V3Number.h\00", align 1
@.str.96 = private unnamed_addr constant [41 x i8] c"`num` member accessed when data type is \00", align 1

; Function Attrs: mustprogress nounwind uwtable
define linkonce_odr dso_local noundef ptr @_ZNKSt6vectorIN12V3NumberData9ValueAndXESaIS1_EE11_M_data_ptrIS1_EEPT_S6_(ptr noundef nonnull align 8 dereferenceable(24) %0, ptr noundef %1) #7 comdat align 2 {
  %3 = alloca ptr, align 8
  %4 = alloca ptr, align 8
  store ptr %0, ptr %3, align 8, !tbaa !313
  store ptr %1, ptr %4, align 8, !tbaa !34
  %5 = load ptr, ptr %4, align 8, !tbaa !34
  ret ptr %5
}

; Function Attrs: mustprogress nounwind uwtable
define linkonce_odr dso_local noundef ptr @_ZNSt14__array_traitsIN12V3NumberData9ValueAndXELm4EE6_S_ptrERA4_KS1_(ptr noundef nonnull align 4 dereferenceable(32) %0) #7 comdat align 2 {
  %2 = alloca ptr, align 8
  store ptr %0, ptr %2, align 8, !tbaa !34
  %3 = load ptr, ptr %2, align 8, !tbaa !34
  %4 = getelementptr inbounds [4 x %"struct.V3NumberData::ValueAndX"], ptr %3, i64 0, i64 0
  ret ptr %4
}

; Function Attrs: mustprogress nounwind uwtable
define linkonce_odr dso_local noundef i32 @_ZNK12V3NumberData5widthEv(ptr noundef nonnull align 8 dereferenceable(40) %0) #7 comdat align 2 {
  %2 = alloca ptr, align 8
  store ptr %0, ptr %2, align 8, !tbaa !42
  %3 = load ptr, ptr %2, align 8
  %4 = getelementptr inbounds nuw %class.V3NumberData, ptr %3, i32 0, i32 1
  %5 = load i32, ptr %4, align 8, !tbaa !44
  ret i32 %5
}

; Function Attrs: mustprogress nounwind uwtable
define linkonce_odr dso_local noundef zeroext i8 @_ZNK12V3NumberData4typeEv(ptr noundef nonnull align 8 dereferenceable(40) %0) #7 comdat align 2 {
  %2 = alloca ptr, align 8
  store ptr %0, ptr %2, align 8, !tbaa !42
  %3 = load ptr, ptr %2, align 8
  %4 = getelementptr inbounds nuw %class.V3NumberData, ptr %3, i32 0, i32 2
  %5 = load i8, ptr %4, align 4, !tbaa !45
  ret i8 %5
}

; Function Attrs: mustprogress nounwind uwtable
define linkonce_odr dso_local noundef ptr @_ZNKSt6vectorIN12V3NumberData9ValueAndXESaIS1_EE4dataEv(ptr noundef nonnull align 8 dereferenceable(24) %0) #7 comdat align 2 {
  %2 = alloca ptr, align 8
  store ptr %0, ptr %2, align 8, !tbaa !313
  %3 = load ptr, ptr %2, align 8
  %4 = getelementptr inbounds nuw %"struct.std::_Vector_base", ptr %3, i32 0, i32 0
  %5 = getelementptr inbounds nuw %"struct.std::_Vector_base<V3NumberData::ValueAndX, std::allocator<V3NumberData::ValueAndX>>::_Vector_impl_data", ptr %4, i32 0, i32 0
  %6 = load ptr, ptr %5, align 8, !tbaa !315
  %7 = call noundef ptr @_ZNKSt6vectorIN12V3NumberData9ValueAndXESaIS1_EE11_M_data_ptrIS1_EEPT_S6_(ptr noundef nonnull align 8 dereferenceable(24) %3, ptr noundef %6) #3
  ret ptr %7
}

; Function Attrs: mustprogress nounwind uwtable
define linkonce_odr dso_local noundef ptr @_ZNKSt5arrayIN12V3NumberData9ValueAndXELm4EE4dataEv(ptr noundef nonnull align 4 dereferenceable(32) %0) #7 comdat align 2 {
  %2 = alloca ptr, align 8
  store ptr %0, ptr %2, align 8, !tbaa !317
  %3 = load ptr, ptr %2, align 8
  %4 = getelementptr inbounds nuw %"struct.std::array", ptr %3, i32 0, i32 0
  %5 = call noundef ptr @_ZNSt14__array_traitsIN12V3NumberData9ValueAndXELm4EE6_S_ptrERA4_KS1_(ptr noundef nonnull align 4 dereferenceable(32) %4) #3
  ret ptr %5
}

; Function Attrs: mustprogress nounwind uwtable
define linkonce_odr dso_local noundef zeroext i1 @_ZNK12V3NumberData14isInlineNumberEv(ptr noundef nonnull align 8 dereferenceable(40) %0) #7 comdat align 2 {
  %2 = alloca ptr, align 8
  store ptr %0, ptr %2, align 8, !tbaa !42
  %3 = load ptr, ptr %2, align 8
  %4 = getelementptr inbounds nuw %class.V3NumberData, ptr %3, i32 0, i32 1
  %5 = load i32, ptr %4, align 8, !tbaa !44
  %6 = icmp sle i32 %5, 128
  br i1 %6, label %7, label %17

7:                                                ; preds = %1
  %8 = getelementptr inbounds nuw %class.V3NumberData, ptr %3, i32 0, i32 2
  %9 = load i8, ptr %8, align 4, !tbaa !45
  %10 = icmp eq i8 %9, 2
  br i1 %10, label %15, label %11

11:                                               ; preds = %7
  %12 = getelementptr inbounds nuw %class.V3NumberData, ptr %3, i32 0, i32 2
  %13 = load i8, ptr %12, align 4, !tbaa !45
  %14 = icmp eq i8 %13, 1
  br label %15

15:                                               ; preds = %11, %7
  %16 = phi i1 [ true, %7 ], [ %14, %11 ]
  br label %17

17:                                               ; preds = %15, %1
  %18 = phi i1 [ false, %1 ], [ %16, %15 ]
  ret i1 %18
}

; Function Attrs: mustprogress nounwind uwtable
define linkonce_odr dso_local void @_ZN11V3ErrorCodeC2ENS_2enE(ptr noundef nonnull align 1 dereferenceable(1) %0, i8 noundef zeroext %1) unnamed_addr #7 comdat align 2 {
  %3 = alloca ptr, align 8
  %4 = alloca i8, align 1
  store ptr %0, ptr %3, align 8, !tbaa !123
  store i8 %1, ptr %4, align 1, !tbaa !125
  %5 = load ptr, ptr %3, align 8
  %6 = getelementptr inbounds nuw %class.V3ErrorCode, ptr %5, i32 0, i32 0
  %7 = load i8, ptr %4, align 1, !tbaa !125
  store i8 %7, ptr %6, align 1, !tbaa !127
  ret void
}

; Function Attrs: mustprogress nounwind uwtable
define linkonce_odr dso_local noundef zeroext i1 @_ZNK12V3NumberData8isNumberEv(ptr noundef nonnull align 8 dereferenceable(40) %0) #7 comdat align 2 {
  %2 = alloca ptr, align 8
  store ptr %0, ptr %2, align 8, !tbaa !42
  %3 = load ptr, ptr %2, align 8
  %4 = getelementptr inbounds nuw %class.V3NumberData, ptr %3, i32 0, i32 2
  %5 = load i8, ptr %4, align 4, !tbaa !45
  %6 = icmp eq i8 %5, 2
  br i1 %6, label %11, label %7

7:                                                ; preds = %1
  %8 = getelementptr inbounds nuw %class.V3NumberData, ptr %3, i32 0, i32 2
  %9 = load i8, ptr %8, align 4, !tbaa !45
  %10 = icmp eq i8 %9, 1
  br label %11

11:                                               ; preds = %7, %1
  %12 = phi i1 [ true, %1 ], [ %10, %7 ]
  ret i1 %12
}

; Function Attrs: mustprogress nounwind uwtable
define linkonce_odr dso_local noundef i32 @_ZNK8V3Number5widthEv(ptr noundef nonnull align 8 dereferenceable(56) %0) #7 comdat align 2 {
  %2 = alloca ptr, align 8
  store ptr %0, ptr %2, align 8, !tbaa !4
  %3 = load ptr, ptr %2, align 8
  %4 = getelementptr inbounds nuw %class.V3Number, ptr %3, i32 0, i32 0
  %5 = call noundef i32 @_ZNK12V3NumberData5widthEv(ptr noundef nonnull align 8 dereferenceable(40) %4)
  ret i32 %5
}

; Function Attrs: mustprogress nounwind uwtable
define linkonce_odr dso_local noundef zeroext i8 @_ZNK8V3Number8dataTypeEv(ptr noundef nonnull align 8 dereferenceable(56) %0) #7 comdat align 2 {
  %2 = alloca ptr, align 8
  store ptr %0, ptr %2, align 8, !tbaa !4
  %3 = load ptr, ptr %2, align 8
  %4 = getelementptr inbounds nuw %class.V3Number, ptr %3, i32 0, i32 0
  %5 = call noundef zeroext i8 @_ZNK12V3NumberData4typeEv(ptr noundef nonnull align 8 dereferenceable(40) %4)
  ret i8 %5
}

; Function Attrs: mustprogress uwtable
define linkonce_odr dso_local noundef ptr @_ZNK12V3NumberData3numEv(ptr noundef nonnull align 8 dereferenceable(40) %0) #4 comdat align 2 {
  %2 = alloca ptr, align 8
  %3 = alloca %class.V3ErrorCode, align 1
  store ptr %0, ptr %2, align 8, !tbaa !42
  %4 = load ptr, ptr %2, align 8
  br label %5

5:                                                ; preds = %1
  %6 = call noundef zeroext i1 @_ZNK12V3NumberData8isNumberEv(ptr noundef nonnull align 8 dereferenceable(40) %4)
  %7 = xor i1 %6, true
  %8 = xor i1 %7, true
  %9 = xor i1 %8, true
  %10 = zext i1 %9 to i64
  %11 = call i64 @llvm.expect.i64(i64 %10, i64 0)
  %12 = icmp ne i64 %11, 0
  br i1 %12, label %13, label %21

13:                                               ; preds = %5
  call void @_ZN11V3ErrorCodeC2ENS_2enE(ptr noundef nonnull align 1 dereferenceable(1) %3, i8 noundef zeroext 4)
  %14 = getelementptr inbounds nuw %class.V3ErrorCode, ptr %3, i32 0, i32 0
  %15 = load i8, ptr %14, align 1
  %16 = call noundef nonnull align 8 dereferenceable(112) ptr @_ZN7V3Error19v3errorPrepFileLineB5cxx11E11V3ErrorCodePKci(i8 %15, ptr noundef @.str.95, i32 noundef 198)
  %17 = call noundef nonnull align 8 dereferenceable(112) ptr @_ZN7V3Error10v3errorStrB5cxx11Ev()
  %18 = call noundef nonnull align 8 dereferenceable(8) ptr @_ZStlsISt11char_traitsIcEERSt13basic_ostreamIcT_ES5_PKc(ptr noundef nonnull align 8 dereferenceable(8) %17, ptr noundef @.str.96)
  %19 = getelementptr inbounds nuw %class.V3NumberData, ptr %4, i32 0, i32 2
  %20 = call noundef nonnull align 8 dereferenceable(8) ptr @_ZlsRSoRKN12V3NumberData16V3NumberDataTypeE(ptr noundef nonnull align 8 dereferenceable(8) %18, ptr noundef nonnull align 1 dereferenceable(1) %19)
  call void @_Z15v3errorEndFatalRNSt7__cxx1119basic_ostringstreamIcSt11char_traitsIcESaIcEEE(ptr noundef nonnull align 8 dereferenceable(112) %20) #25
  unreachable

21:                                               ; preds = %5
  br label %22

22:                                               ; preds = %21
  %23 = call noundef zeroext i1 @_ZNK12V3NumberData14isInlineNumberEv(ptr noundef nonnull align 8 dereferenceable(40) %4)
  br i1 %23, label %24, label %27

24:                                               ; preds = %22
  %25 = getelementptr inbounds nuw %class.V3NumberData, ptr %4, i32 0, i32 0
  %26 = call noundef ptr @_ZNKSt5arrayIN12V3NumberData9ValueAndXELm4EE4dataEv(ptr noundef nonnull align 4 dereferenceable(32) %25) #3
  br label %30

27:                                               ; preds = %22
  %28 = getelementptr inbounds nuw %class.V3NumberData, ptr %4, i32 0, i32 0
  %29 = call noundef ptr @_ZNKSt6vectorIN12V3NumberData9ValueAndXESaIS1_EE4dataEv(ptr noundef nonnull align 8 dereferenceable(24) %28) #3
  br label %30

30:                                               ; preds = %27, %24
  %31 = phi ptr [ %26, %24 ], [ %29, %27 ]
  ret ptr %31
}

; Function Attrs: mustprogress uwtable
define linkonce_odr dso_local noundef i32 @_ZNK8V3Number5wordsEv(ptr noundef nonnull align 8 dereferenceable(56) %0) #4 comdat align 2 {
  %2 = alloca ptr, align 8
  store ptr %0, ptr %2, align 8, !tbaa !4
  %3 = load ptr, ptr %2, align 8
  %4 = call noundef i32 @_ZNK8V3Number5widthEv(ptr noundef nonnull align 8 dereferenceable(56) %3)
  %5 = add nsw i32 %4, 31
  %6 = sdiv i32 %5, 32
  ret i32 %6
}

; Function Attrs: mustprogress nounwind uwtable
define linkonce_odr dso_local noundef i32 @_ZNK8V3Number10hiWordMaskEv(ptr noundef nonnull align 8 dereferenceable(56) %0) #7 comdat align 2 {
  %2 = alloca ptr, align 8
  store ptr %0, ptr %2, align 8, !tbaa !4
  %3 = load ptr, ptr %2, align 8
  %4 = call noundef i32 @_ZNK8V3Number5widthEv(ptr noundef nonnull align 8 dereferenceable(56) %3)
  %5 = and i32 %4, 31
  %6 = icmp ne i32 %5, 0
  br i1 %6, label %7, label %12

7:                                                ; preds = %1
  %8 = call noundef i32 @_ZNK8V3Number5widthEv(ptr noundef nonnull align 8 dereferenceable(56) %3)
  %9 = and i32 %8, 31
  %10 = shl i32 1, %9
  %11 = sub i32 %10, 1
  br label %13

12:                                               ; preds = %1
  br label %13

13:                                               ; preds = %12, %7
  %14 = phi i32 [ %11, %7 ], [ -1, %12 ]
  ret i32 %14
}

; Function Attrs: mustprogress uwtable
define linkonce_odr dso_local noundef zeroext i1 @_ZNK8V3Number8isStringEv(ptr noundef nonnull align 8 dereferenceable(56) %0) #4 comdat align 2 {
  %2 = alloca ptr, align 8
  store ptr %0, ptr %2, align 8, !tbaa !4
  %3 = load ptr, ptr %2, align 8
  %4 = call noundef zeroext i8 @_ZNK8V3Number8dataTypeEv(ptr noundef nonnull align 8 dereferenceable(56) %3)
  %5 = icmp eq i8 %4, 3
  ret i1 %5
}

; Function Attrs: mustprogress uwtable
define linkonce_odr dso_local noundef zeroext i1 @_ZNK8V3Number8isDoubleEv(ptr noundef nonnull align 8 dereferenceable(56) %0) #4 comdat align 2 {
  %2 = alloca ptr, align 8
  store ptr %0, ptr %2, align 8, !tbaa !4
  %3 = load ptr, ptr %2, align 8
  %4 = call noundef zeroext i8 @_ZNK8V3Number8dataTypeEv(ptr noundef nonnull align 8 dereferenceable(56) %3)
  %5 = icmp eq i8 %4, 2
  ret i1 %5
}

; Function Attrs: mustprogress uwtable
define dso_local noundef zeroext i1 @_ZNK8V3Number6isAllXEv(ptr noundef nonnull align 8 dereferenceable(56) %0) #4 align 2 {
  %2 = alloca i1, align 1
  %3 = alloca ptr, align 8
  %4 = alloca i32, align 4
  %5 = alloca i32, align 4
  %6 = alloca i32, align 4
  %7 = alloca %"struct.V3NumberData::ValueAndX", align 4
  store ptr %0, ptr %3, align 8, !tbaa !4
  %8 = load ptr, ptr %3, align 8
  %9 = call noundef zeroext i1 @_ZNK8V3Number8isDoubleEv(ptr noundef nonnull align 8 dereferenceable(56) %8)
  br i1 %9, label %12, label %10

10:                                               ; preds = %1
  %11 = call noundef zeroext i1 @_ZNK8V3Number8isStringEv(ptr noundef nonnull align 8 dereferenceable(56) %8)
  br i1 %11, label %12, label %13

12:                                               ; preds = %10, %1
  store i1 false, ptr %2, align 1
  br label %47

13:                                               ; preds = %10
  call void @llvm.lifetime.start.p0(i64 4, ptr %4) #3
  %14 = call noundef i32 @_ZNK8V3Number10hiWordMaskEv(ptr noundef nonnull align 8 dereferenceable(56) %8)
  store i32 %14, ptr %4, align 4, !tbaa !33
  call void @llvm.lifetime.start.p0(i64 4, ptr %5) #3
  %15 = call noundef i32 @_ZNK8V3Number5wordsEv(ptr noundef nonnull align 8 dereferenceable(56) %8)
  %16 = sub nsw i32 %15, 1
  store i32 %16, ptr %5, align 4, !tbaa !33
  br label %17

17:                                               ; preds = %40, %13
  %18 = load i32, ptr %5, align 4, !tbaa !33
  %19 = icmp sge i32 %18, 0
  br i1 %19, label %21, label %20

20:                                               ; preds = %17
  store i32 2, ptr %6, align 4
  br label %43

21:                                               ; preds = %17
  call void @llvm.lifetime.start.p0(i64 8, ptr %7) #3
  %22 = getelementptr inbounds nuw %class.V3Number, ptr %8, i32 0, i32 0
  %23 = call noundef ptr @_ZNK12V3NumberData3numEv(ptr noundef nonnull align 8 dereferenceable(40) %22)
  %24 = load i32, ptr %5, align 4, !tbaa !33
  %25 = sext i32 %24 to i64
  %26 = getelementptr inbounds %"struct.V3NumberData::ValueAndX", ptr %23, i64 %25
  call void @llvm.memcpy.p0.p0.i64(ptr align 4 %7, ptr align 4 %26, i64 8, i1 false), !tbaa.struct !50
  %27 = getelementptr inbounds nuw %"struct.V3NumberData::ValueAndX", ptr %7, i32 0, i32 0
  %28 = load i32, ptr %27, align 4, !tbaa !37
  %29 = getelementptr inbounds nuw %"struct.V3NumberData::ValueAndX", ptr %7, i32 0, i32 1
  %30 = load i32, ptr %29, align 4, !tbaa !49
  %31 = and i32 %28, %30
  %32 = load i32, ptr %4, align 4, !tbaa !33
  %33 = xor i32 %31, %32
  %34 = icmp ne i32 %33, 0
  br i1 %34, label %35, label %36

35:                                               ; preds = %21
  store i1 false, ptr %2, align 1
  store i32 1, ptr %6, align 4
  br label %37

36:                                               ; preds = %21
  store i32 -1, ptr %4, align 4, !tbaa !33
  store i32 0, ptr %6, align 4
  br label %37

37:                                               ; preds = %36, %35
  call void @llvm.lifetime.end.p0(i64 8, ptr %7) #3
  %38 = load i32, ptr %6, align 4
  switch i32 %38, label %43 [
    i32 0, label %39
  ]

39:                                               ; preds = %37
  br label %40

40:                                               ; preds = %39
  %41 = load i32, ptr %5, align 4, !tbaa !33
  %42 = add nsw i32 %41, -1
  store i32 %42, ptr %5, align 4, !tbaa !33
  br label %17, !llvm.loop !205

43:                                               ; preds = %37, %20
  call void @llvm.lifetime.end.p0(i64 4, ptr %5) #3
  %44 = load i32, ptr %6, align 4
  switch i32 %44, label %46 [
    i32 2, label %45
  ]

45:                                               ; preds = %43
  store i1 true, ptr %2, align 1
  store i32 1, ptr %6, align 4
  br label %46

46:                                               ; preds = %45, %43
  call void @llvm.lifetime.end.p0(i64 4, ptr %4) #3
  br label %47

47:                                               ; preds = %46, %12
  %48 = load i1, ptr %2, align 1
  ret i1 %48
}